target datalayout = "e-m:e-p270:32:32-p271:32:32-p272:64:64-i64:64-i128:128-f80:128-n8:16:32:64-S128"
target triple = "x86_64-pc-linux-gnu"

%struct.darktable_t = type { %struct.dt_codepath_t, i32, i32, ptr, ptr, ptr, ptr, ptr, ptr, ptr, ptr, ptr, ptr, ptr, ptr, ptr, ptr, ptr, ptr, ptr, ptr, ptr, ptr, ptr, ptr, ptr, ptr, ptr, ptr, ptr, [64 x %struct.dt_pthread_mutex_t], %struct.dt_pthread_mutex_t, %struct.dt_pthread_mutex_t, %struct.dt_pthread_mutex_t, %struct.dt_pthread_mutex_t, %struct.dt_pthread_mutex_t, ptr, ptr, ptr, ptr, ptr, ptr, ptr, ptr, ptr, ptr, ptr, ptr, ptr, %struct.dt_lua_state_t, ptr, double, ptr, i32, [47 x i32], i32, i32, ptr, ptr, %struct.dt_sys_resources_t, %struct.dt_backthumb_t, %struct.dt_gimp_t }
%struct.dt_codepath_t = type { i8, [3 x i8] }
%struct.dt_pthread_mutex_t = type { %union.pthread_mutex_t }
%union.pthread_mutex_t = type { %struct.__pthread_mutex_s }
%struct.__pthread_mutex_s = type { i32, i32, i32, i32, i32, i16, i16, %struct.__pthread_internal_list }
%struct.__pthread_internal_list = type { ptr, ptr }
%struct.dt_lua_state_t = type { i32 }
%struct.dt_sys_resources_t = type { i64, i64, ptr, ptr, i32 }
%struct.dt_backthumb_t = type { double, double, i32, i32, i32, i32 }
%struct.dt_gimp_t = type { i32, ptr, ptr, i32, i32 }
%struct.anon.4 = type { i32, i32, i32, i32 }
%struct.dt_gui_gtk_t = type { ptr, %struct.dt_gui_widgets_t, %struct.dt_gui_scrollbars_t, i32, ptr, i32, [39 x %struct._GdkRGBA], i32, i32, i32, i32, i32, double, double, double, double, ptr, double, double, double, double, i32, i32, [4096 x i8], i32, i32, i32, %struct.dt_pthread_mutex_t }
%struct.dt_gui_widgets_t = type { ptr, ptr, ptr, ptr, i32, i32, i32 }
%struct.dt_gui_scrollbars_t = type { ptr, ptr, i32 }
%struct._GdkRGBA = type { double, double, double, double }

@darktable = external global %struct.darktable_t, align 8
@.str.27 = private unnamed_addr constant [10 x i8] c"shortcuts\00", align 1
@_shortcuts_dialog_posize = internal global %struct.anon.4 zeroinitializer, align 4
@.str.48 = private unnamed_addr constant [31 x i8] c"ui_last/shortcuts_dialog_width\00", align 1
@.str.49 = private unnamed_addr constant [32 x i8] c"ui_last/shortcuts_dialog_height\00", align 1
@.str.50 = private unnamed_addr constant [16 x i8] c"configure-event\00", align 1

; Function Attrs: nounwind uwtable
define internal void @_show_shortcuts_prefs(ptr noundef %0) #0 {
  %2 = alloca ptr, align 8
  %3 = alloca ptr, align 8
  %4 = alloca ptr, align 8
  store ptr %0, ptr %2, align 8, !tbaa !68
  call void @llvm.lifetime.start.p0(i64 8, ptr %3) #9
  %5 = call ptr @dcgettext(ptr noundef null, ptr noundef @.str.27, i32 noundef 5) #9
  %6 = load ptr, ptr getelementptr inbounds nuw (%struct.darktable_t, ptr @darktable, i32 0, i32 14), align 8, !tbaa !60
  %7 = getelementptr inbounds nuw %struct.dt_gui_gtk_t, ptr %6, i32 0, i32 0
  %8 = load ptr, ptr %7, align 8, !tbaa !99
  %9 = call ptr @dt_ui_main_window(ptr noundef %8)
  %10 = call i64 @gtk_window_get_type() #11
  %11 = call ptr @g_type_check_instance_cast(ptr noundef %9, i64 noundef %10)
  %12 = call ptr (ptr, ptr, i32, ptr, ...) @gtk_dialog_new_with_buttons(ptr noundef %5, ptr noundef %11, i32 noundef 2, ptr noundef null, ptr noundef null)
  store ptr %12, ptr %3, align 8, !tbaa !68
  %13 = load i32, ptr getelementptr inbounds nuw (%struct.anon.4, ptr @_shortcuts_dialog_posize, i32 0, i32 2), align 4, !tbaa !181
  %14 = icmp ne i32 %13, 0
  br i1 %14, label %33, label %15

15:                                               ; preds = %1
  %16 = load ptr, ptr %3, align 8, !tbaa !68
  %17 = call i64 @gtk_window_get_type() #11
  %18 = call ptr @g_type_check_instance_cast(ptr noundef %16, i64 noundef %17)
  %19 = call i32 @dt_conf_get_int(ptr noundef @.str.48)
  %20 = sitofp i32 %19 to double
  %21 = load ptr, ptr getelementptr inbounds nuw (%struct.darktable_t, ptr @darktable, i32 0, i32 14), align 8, !tbaa !60
  %22 = getelementptr inbounds nuw %struct.dt_gui_gtk_t, ptr %21, i32 0, i32 18
  %23 = load double, ptr %22, align 8, !tbaa !183
  %24 = fmul reassoc nsz arcp contract afn double %20, %23
  %25 = fptosi double %24 to i32
  %26 = call i32 @dt_conf_get_int(ptr noundef @.str.49)
  %27 = sitofp i32 %26 to double
  %28 = load ptr, ptr getelementptr inbounds nuw (%struct.darktable_t, ptr @darktable, i32 0, i32 14), align 8, !tbaa !60
  %29 = getelementptr inbounds nuw %struct.dt_gui_gtk_t, ptr %28, i32 0, i32 18
  %30 = load double, ptr %29, align 8, !tbaa !183
  %31 = fmul reassoc nsz arcp contract afn double %27, %30
  %32 = fptosi double %31 to i32
  call void @gtk_window_set_default_size(ptr noundef %18, i32 noundef %25, i32 noundef %32)
  br label %44

33:                                               ; preds = %1
  %34 = load ptr, ptr %3, align 8, !tbaa !68
  %35 = call i64 @gtk_window_get_type() #11
  %36 = call ptr @g_type_check_instance_cast(ptr noundef %34, i64 noundef %35)
  %37 = load i32, ptr @_shortcuts_dialog_posize, align 4, !tbaa !184
  %38 = load i32, ptr getelementptr inbounds nuw (%struct.anon.4, ptr @_shortcuts_dialog_posize, i32 0, i32 1), align 4, !tbaa !185
  call void @gtk_window_move(ptr noundef %36, i32 noundef %37, i32 noundef %38)
  %39 = load ptr, ptr %3, align 8, !tbaa !68
  %40 = call i64 @gtk_window_get_type() #11
  %41 = call ptr @g_type_check_instance_cast(ptr noundef %39, i64 noundef %40)
  %42 = load i32, ptr getelementptr inbounds nuw (%struct.anon.4, ptr @_shortcuts_dialog_posize, i32 0, i32 2), align 4, !tbaa !181
  %43 = load i32, ptr getelementptr inbounds nuw (%struct.anon.4, ptr @_shortcuts_dialog_posize, i32 0, i32 3), align 4, !tbaa !186
  call void @gtk_window_resize(ptr noundef %41, i32 noundef %42, i32 noundef %43)
  br label %44

44:                                               ; preds = %33, %15
  %45 = load ptr, ptr %3, align 8, !tbaa !68
  %46 = call ptr @g_type_check_instance_cast(ptr noundef %45, i64 noundef 80)
  %47 = call i64 @g_signal_connect_data(ptr noundef %46, ptr noundef @.str.50, ptr noundef @_resize_shortcuts_dialog, ptr noundef null, ptr noundef null, i32 noundef 0)
  %48 = load ptr, ptr %3, align 8, !tbaa !68
  call void @gtk_widget_show_all(ptr noundef %48)
  call void @llvm.lifetime.start.p0(i64 8, ptr %4) #9
  %49 = load ptr, ptr %3, align 8, !tbaa !68
  %50 = call i64 @gtk_dialog_get_type() #11
  %51 = call ptr @g_type_check_instance_cast(ptr noundef %49, i64 noundef %50)
  %52 = call ptr @gtk_dialog_get_content_area(ptr noundef %51)
  store ptr %52, ptr %4, align 8, !tbaa !68
  %53 = load ptr, ptr %4, align 8, !tbaa !68
  %54 = call i64 @gtk_box_get_type() #11
  %55 = call ptr @g_type_check_instance_cast(ptr noundef %53, i64 noundef %54)
  %56 = load ptr, ptr %2, align 8, !tbaa !68
  %57 = call ptr @dt_shortcuts_prefs(ptr noundef %56)
  call void @gtk_box_pack_start(ptr noundef %55, ptr noundef %57, i32 noundef 1, i32 noundef 1, i32 noundef 0)
  %58 = load ptr, ptr %4, align 8, !tbaa !68
  call void @gtk_widget_show_all(ptr noundef %58)
  %59 = load ptr, ptr %3, align 8, !tbaa !68
  %60 = call i64 @gtk_dialog_get_type() #11
  %61 = call ptr @g_type_check_instance_cast(ptr noundef %59, i64 noundef %60)
  %62 = call i32 @gtk_dialog_run(ptr noundef %61)
  %63 = load ptr, ptr %3, align 8, !tbaa !68
  call void @gtk_widget_destroy(ptr noundef %63)
  call void @llvm.lifetime.end.p0(i64 8, ptr %4) #9
  call void @llvm.lifetime.end.p0(i64 8, ptr %3) #9
  ret void
}