; Function Attrs: nounwind uwtable
define internal fastcc void @_show_shortcuts_prefs(ptr noundef %0) unnamed_addr #1 {
  %2 = tail call ptr @dcgettext(ptr noundef null, ptr noundef nonnull @.str.27, i32 noundef 5) #10
  %3 = load ptr, ptr getelementptr inbounds nuw (i8, ptr @darktable, i64 104), align 8, !tbaa !56
  %4 = load ptr, ptr %3, align 8, !tbaa !93
  %5 = tail call ptr @dt_ui_main_window(ptr noundef %4) #10
  %6 = tail call i64 @gtk_window_get_type() #12
  %7 = tail call ptr @g_type_check_instance_cast(ptr noundef %5, i64 noundef %6) #10
  %8 = tail call ptr (ptr, ptr, i32, ptr, ...) @gtk_dialog_new_with_buttons(ptr noundef %2, ptr noundef %7, i32 noundef 2, ptr noundef null, ptr noundef null) #10
  %9 = load i32, ptr getelementptr inbounds nuw (i8, ptr @_shortcuts_dialog_posize, i64 8), align 4, !tbaa !156
  %.not = icmp eq i32 %9, 0
  %10 = tail call ptr @g_type_check_instance_cast(ptr noundef %8, i64 noundef %6) #10
  br i1 %.not, label %11, label %26

11:                                               ; preds = %1
  %12 = tail call i32 @dt_conf_get_int(ptr noundef nonnull @.str.48) #10
  %13 = sitofp i32 %12 to double
  %14 = load ptr, ptr getelementptr inbounds nuw (i8, ptr @darktable, i64 104), align 8, !tbaa !56
  %15 = getelementptr inbounds nuw i8, ptr %14, i64 1424
  %16 = load double, ptr %15, align 8, !tbaa !158
  %17 = fmul reassoc nsz arcp contract afn double %16, %13
  %18 = fptosi double %17 to i32
  %19 = tail call i32 @dt_conf_get_int(ptr noundef nonnull @.str.49) #10
  %20 = sitofp i32 %19 to double
  %21 = load ptr, ptr getelementptr inbounds nuw (i8, ptr @darktable, i64 104), align 8, !tbaa !56
  %22 = getelementptr inbounds nuw i8, ptr %21, i64 1424
  %23 = load double, ptr %22, align 8, !tbaa !158
  %24 = fmul reassoc nsz arcp contract afn double %23, %20
  %25 = fptosi double %24 to i32
  tail call void @gtk_window_set_default_size(ptr noundef %10, i32 noundef %18, i32 noundef %25) #10
  br label %32

26:                                               ; preds = %1
  %27 = load i32, ptr @_shortcuts_dialog_posize, align 4, !tbaa !159
  %28 = load i32, ptr getelementptr inbounds nuw (i8, ptr @_shortcuts_dialog_posize, i64 4), align 4, !tbaa !160
  tail call void @gtk_window_move(ptr noundef %10, i32 noundef %27, i32 noundef %28) #10
  %29 = tail call ptr @g_type_check_instance_cast(ptr noundef %8, i64 noundef %6) #10
  %30 = load i32, ptr getelementptr inbounds nuw (i8, ptr @_shortcuts_dialog_posize, i64 8), align 4, !tbaa !156
  %31 = load i32, ptr getelementptr inbounds nuw (i8, ptr @_shortcuts_dialog_posize, i64 12), align 4, !tbaa !161
  tail call void @gtk_window_resize(ptr noundef %29, i32 noundef %30, i32 noundef %31) #10
  br label %32

32:                                               ; preds = %26, %11
  %33 = tail call ptr @g_type_check_instance_cast(ptr noundef %8, i64 noundef 80) #10
  %34 = tail call i64 @g_signal_connect_data(ptr noundef %33, ptr noundef nonnull @.str.50, ptr noundef nonnull @_resize_shortcuts_dialog, ptr noundef null, ptr noundef null, i32 noundef 0) #10
  tail call void @gtk_widget_show_all(ptr noundef %8) #10
  %35 = tail call i64 @gtk_dialog_get_type() #12
  %36 = tail call ptr @g_type_check_instance_cast(ptr noundef %8, i64 noundef %35) #10
  %37 = tail call ptr @gtk_dialog_get_content_area(ptr noundef %36) #10
  %38 = tail call i64 @gtk_box_get_type() #12
  %39 = tail call ptr @g_type_check_instance_cast(ptr noundef %37, i64 noundef %38) #10
  %40 = tail call ptr @dt_shortcuts_prefs(ptr noundef %0) #10
  tail call void @gtk_box_pack_start(ptr noundef %39, ptr noundef %40, i32 noundef 1, i32 noundef 1, i32 noundef 0) #10
  tail call void @gtk_widget_show_all(ptr noundef %37) #10
  %41 = tail call ptr @g_type_check_instance_cast(ptr noundef %8, i64 noundef %35) #10
  %42 = tail call i32 @gtk_dialog_run(ptr noundef %41) #10
  tail call void @gtk_widget_destroy(ptr noundef %8) #10
  ret void
}